; Function Attrs: null_pointer_is_valid sspstrong uwtable
define internal fastcc range(i32 23, 40) i32 @dissect_rdm_pd_binding_control_fields(ptr noundef %0, ptr noundef %1, i8 noundef zeroext %2) unnamed_addr #1 {
  switch i8 %2, label %13 [
    i8 32, label %.sink.split
    i8 33, label %4
  ]

4:                                                ; preds = %3
  %5 = load i32, ptr @hf_rdm_pd_binding_control_fields_endpoint_id, align 4
  %6 = tail call ptr @proto_tree_add_item(ptr noundef %1, i32 noundef %5, ptr noundef %0, i32 noundef 23, i32 noundef 2, i32 noundef 0)
  %7 = load i32, ptr @hf_rdm_pd_binding_control_fields_uid, align 4
  %8 = tail call ptr @proto_tree_add_item(ptr noundef %1, i32 noundef %7, ptr noundef %0, i32 noundef 25, i32 noundef 6, i32 noundef 0)
  br label %.sink.split

.sink.split:                                      ; preds = %3, %4
  %hf_rdm_pd_binding_control_fields_control_field.sink = phi ptr [ @hf_rdm_pd_binding_control_fields_control_field, %4 ], [ @hf_rdm_pd_binding_control_fields_endpoint_id, %3 ]
  %.sink25 = phi i32 [ 31, %4 ], [ 23, %3 ]
  %hf_rdm_pd_binding_control_fields_binding_uid.sink = phi ptr [ @hf_rdm_pd_binding_control_fields_binding_uid, %4 ], [ @hf_rdm_pd_binding_control_fields_uid, %3 ]
  %.sink24 = phi i32 [ 33, %4 ], [ 25, %3 ]
  %.0.ph = phi i32 [ 39, %4 ], [ 31, %3 ]
  %9 = load i32, ptr %hf_rdm_pd_binding_control_fields_control_field.sink, align 4
  %10 = tail call ptr @proto_tree_add_item(ptr noundef %1, i32 noundef %9, ptr noundef %0, i32 noundef %.sink25, i32 noundef 2, i32 noundef 0)
  %11 = load i32, ptr %hf_rdm_pd_binding_control_fields_binding_uid.sink, align 4
  %12 = tail call ptr @proto_tree_add_item(ptr noundef %1, i32 noundef %11, ptr noundef %0, i32 noundef %.sink24, i32 noundef 6, i32 noundef 0)
  br label %13

13:                                               ; preds = %.sink.split, %3
  %.0 = phi i32 [ 23, %3 ], [ %.0.ph, %.sink.split ]
  ret i32 %.0
}